target datalayout = "e-m:e-p270:32:32-p271:32:32-p272:64:64-i64:64-i128:128-f80:128-n8:16:32:64-S128"
target triple = "x86_64-pc-linux-gnu"

; Function Attrs: inlinehint mustprogress nounwind uwtable
define linkonce_odr hidden noundef zeroext i1 @_ZN19OpenColorIO_v2_5dev7IsSpaceEc(i8 noundef signext %0) #6 comdat {
  %2 = alloca i8, align 1
  store i8 %0, ptr %2, align 1, !tbaa !11
  %3 = load i8, ptr %2, align 1, !tbaa !11
  %4 = sext i8 %3 to i32
  %5 = icmp eq i32 %4, 32
  br i1 %5, label %26, label %6

6:                                                ; preds = %1
  %7 = load i8, ptr %2, align 1, !tbaa !11
  %8 = sext i8 %7 to i32
  %9 = icmp eq i32 %8, 10
  br i1 %9, label %26, label %10

10:                                               ; preds = %6
  %11 = load i8, ptr %2, align 1, !tbaa !11
  %12 = sext i8 %11 to i32
  %13 = icmp eq i32 %12, 9
  br i1 %13, label %26, label %14

14:                                               ; preds = %10
  %15 = load i8, ptr %2, align 1, !tbaa !11
  %16 = sext i8 %15 to i32
  %17 = icmp eq i32 %16, 13
  br i1 %17, label %26, label %18

18:                                               ; preds = %14
  %19 = load i8, ptr %2, align 1, !tbaa !11
  %20 = sext i8 %19 to i32
  %21 = icmp eq i32 %20, 11
  br i1 %21, label %26, label %22

22:                                               ; preds = %18
  %23 = load i8, ptr %2, align 1, !tbaa !11
  %24 = sext i8 %23 to i32
  %25 = icmp eq i32 %24, 12
  br label %26

26:                                               ; preds = %22, %18, %14, %10, %6, %1
  %27 = phi i1 [ true, %18 ], [ true, %14 ], [ true, %10 ], [ true, %6 ], [ true, %1 ], [ %25, %22 ]
  ret i1 %27
}

; Function Attrs: inlinehint mustprogress nounwind uwtable
define linkonce_odr hidden noundef i64 @_ZN19OpenColorIO_v2_5dev21FindLastNonWhiteSpaceEPKcm(ptr noundef %0, i64 noundef %1) #6 comdat {
  %3 = alloca i64, align 8
  %4 = alloca ptr, align 8
  %5 = alloca i64, align 8
  %6 = alloca i64, align 8
  %7 = alloca ptr, align 8
  %8 = alloca i32, align 4
  store ptr %0, ptr %4, align 8, !tbaa !14
  store i64 %1, ptr %5, align 8, !tbaa !16
  call void @llvm.lifetime.start.p0(i64 8, ptr %6) #3
  %9 = load i64, ptr %5, align 8, !tbaa !16
  %10 = sub i64 %9, 1
  store i64 %10, ptr %6, align 8, !tbaa !16
  call void @llvm.lifetime.start.p0(i64 8, ptr %7) #3
  %11 = load ptr, ptr %4, align 8, !tbaa !14
  %12 = load i64, ptr %6, align 8, !tbaa !16
  %13 = getelementptr inbounds nuw i8, ptr %11, i64 %12
  store ptr %13, ptr %7, align 8, !tbaa !14
  br label %14

14:                                               ; preds = %24, %2
  %15 = load ptr, ptr %7, align 8, !tbaa !14
  %16 = load i8, ptr %15, align 1, !tbaa !11
  %17 = call noundef zeroext i1 @_ZN19OpenColorIO_v2_5dev7IsSpaceEc(i8 noundef signext %16)
  br i1 %17, label %20, label %18

18:                                               ; preds = %14
  %19 = load i64, ptr %6, align 8, !tbaa !16
  store i64 %19, ptr %3, align 8
  store i32 1, ptr %8, align 4
  br label %29

20:                                               ; preds = %14
  %21 = load i64, ptr %6, align 8, !tbaa !16
  %22 = icmp eq i64 %21, 0
  br i1 %22, label %23, label %24

23:                                               ; preds = %20
  store i64 0, ptr %3, align 8
  store i32 1, ptr %8, align 4
  br label %29

24:                                               ; preds = %20
  %25 = load ptr, ptr %7, align 8, !tbaa !14
  %26 = getelementptr inbounds i8, ptr %25, i32 -1
  store ptr %26, ptr %7, align 8, !tbaa !14
  %27 = load i64, ptr %6, align 8, !tbaa !16
  %28 = add i64 %27, -1
  store i64 %28, ptr %6, align 8, !tbaa !16
  br label %14, !llvm.loop !22

29:                                               ; preds = %23, %18
  call void @llvm.lifetime.end.p0(i64 8, ptr %7) #3
  call void @llvm.lifetime.end.p0(i64 8, ptr %6) #3
  %30 = load i64, ptr %3, align 8
  ret i64 %30
}

; Function Attrs: inlinehint mustprogress nounwind uwtable
define linkonce_odr hidden noundef i64 @_ZN19OpenColorIO_v2_5dev22FindFirstNonWhiteSpaceEPKcm(ptr noundef %0, i64 noundef %1) #6 comdat {
  %3 = alloca i64, align 8
  %4 = alloca ptr, align 8
  %5 = alloca i64, align 8
  %6 = alloca ptr, align 8
  %7 = alloca i64, align 8
  %8 = alloca i32, align 4
  store ptr %0, ptr %4, align 8, !tbaa !14
  store i64 %1, ptr %5, align 8, !tbaa !16
  call void @llvm.lifetime.start.p0(i64 8, ptr %6) #3
  %9 = load ptr, ptr %4, align 8, !tbaa !14
  store ptr %9, ptr %6, align 8, !tbaa !14
  call void @llvm.lifetime.start.p0(i64 8, ptr %7) #3
  store i64 0, ptr %7, align 8, !tbaa !16
  br label %10

10:                                               ; preds = %22, %2
  %11 = load ptr, ptr %6, align 8, !tbaa !14
  %12 = load i8, ptr %11, align 1, !tbaa !11
  %13 = call noundef zeroext i1 @_ZN19OpenColorIO_v2_5dev7IsSpaceEc(i8 noundef signext %12)
  br i1 %13, label %16, label %14

14:                                               ; preds = %10
  %15 = load i64, ptr %7, align 8, !tbaa !16
  store i64 %15, ptr %3, align 8
  store i32 1, ptr %8, align 4
  br label %27

16:                                               ; preds = %10
  %17 = load i64, ptr %7, align 8, !tbaa !16
  %18 = load i64, ptr %5, align 8, !tbaa !16
  %19 = icmp eq i64 %17, %18
  br i1 %19, label %20, label %22

20:                                               ; preds = %16
  %21 = load i64, ptr %5, align 8, !tbaa !16
  store i64 %21, ptr %3, align 8
  store i32 1, ptr %8, align 4
  br label %27

22:                                               ; preds = %16
  %23 = load ptr, ptr %6, align 8, !tbaa !14
  %24 = getelementptr inbounds nuw i8, ptr %23, i32 1
  store ptr %24, ptr %6, align 8, !tbaa !14
  %25 = load i64, ptr %7, align 8, !tbaa !16
  %26 = add i64 %25, 1
  store i64 %26, ptr %7, align 8, !tbaa !16
  br label %10, !llvm.loop !20

27:                                               ; preds = %20, %14
  call void @llvm.lifetime.end.p0(i64 8, ptr %7) #3
  call void @llvm.lifetime.end.p0(i64 8, ptr %6) #3
  %28 = load i64, ptr %3, align 8
  ret i64 %28
}

; Function Attrs: mustprogress uwtable
define hidden void @_ZN19OpenColorIO_v2_5dev13FindSubStringEPKcmRmS2_(ptr noundef %0, i64 noundef %1, ptr noundef nonnull align 8 dereferenceable(8) %2, ptr noundef nonnull align 8 dereferenceable(8) %3) #5 {
  %5 = alloca ptr, align 8
  %6 = alloca i64, align 8
  %7 = alloca ptr, align 8
  %8 = alloca ptr, align 8
  store ptr %0, ptr %5, align 8, !tbaa !14
  store i64 %1, ptr %6, align 8, !tbaa !16
  store ptr %2, ptr %7, align 8, !tbaa !18
  store ptr %3, ptr %8, align 8, !tbaa !18
  %9 = load ptr, ptr %5, align 8, !tbaa !14
  %10 = icmp ne ptr %9, null
  br i1 %10, label %11, label %15

11:                                               ; preds = %4
  %12 = load ptr, ptr %5, align 8, !tbaa !14
  %13 = load i8, ptr %12, align 1, !tbaa !11
  %14 = icmp ne i8 %13, 0
  br i1 %14, label %18, label %15

15:                                               ; preds = %11, %4
  %16 = load ptr, ptr %7, align 8, !tbaa !18
  store i64 0, ptr %16, align 8, !tbaa !16
  %17 = load ptr, ptr %8, align 8, !tbaa !18
  store i64 0, ptr %17, align 8, !tbaa !16
  br label %45

18:                                               ; preds = %11
  %19 = load ptr, ptr %5, align 8, !tbaa !14
  %20 = load i64, ptr %6, align 8, !tbaa !16
  %21 = call noundef i64 @_ZN19OpenColorIO_v2_5dev22FindFirstNonWhiteSpaceEPKcm(ptr noundef %19, i64 noundef %20)
  %22 = load ptr, ptr %7, align 8, !tbaa !18
  store i64 %21, ptr %22, align 8, !tbaa !16
  %23 = load ptr, ptr %7, align 8, !tbaa !18
  %24 = load i64, ptr %23, align 8, !tbaa !16
  %25 = load i64, ptr %6, align 8, !tbaa !16
  %26 = icmp eq i64 %24, %25
  br i1 %26, label %27, label %30

27:                                               ; preds = %18
  %28 = load ptr, ptr %7, align 8, !tbaa !18
  store i64 0, ptr %28, align 8, !tbaa !16
  %29 = load ptr, ptr %8, align 8, !tbaa !18
  store i64 0, ptr %29, align 8, !tbaa !16
  br label %45

30:                                               ; preds = %18
  %31 = load ptr, ptr %5, align 8, !tbaa !14
  %32 = load i64, ptr %6, align 8, !tbaa !16
  %33 = call noundef i64 @_ZN19OpenColorIO_v2_5dev21FindLastNonWhiteSpaceEPKcm(ptr noundef %31, i64 noundef %32)
  %34 = load ptr, ptr %8, align 8, !tbaa !18
  store i64 %33, ptr %34, align 8, !tbaa !16
  %35 = load ptr, ptr %5, align 8, !tbaa !14
  %36 = load ptr, ptr %8, align 8, !tbaa !18
  %37 = load i64, ptr %36, align 8, !tbaa !16
  %38 = getelementptr inbounds nuw i8, ptr %35, i64 %37
  %39 = load i8, ptr %38, align 1, !tbaa !11
  %40 = call noundef zeroext i1 @_ZN19OpenColorIO_v2_5dev7IsSpaceEc(i8 noundef signext %39)
  br i1 %40, label %45, label %41

41:                                               ; preds = %30
  %42 = load ptr, ptr %8, align 8, !tbaa !18
  %43 = load i64, ptr %42, align 8, !tbaa !16
  %44 = add i64 %43, 1
  store i64 %44, ptr %42, align 8, !tbaa !16
  br label %45

45:                                               ; preds = %15, %27, %41, %30
  ret void
}