; Function Attrs: mustprogress nofree norecurse nosync nounwind memory(argmem: readwrite) uwtable
define hidden void @_ZN19OpenColorIO_v2_5dev13FindSubStringEPKcmRmS2_(ptr noundef readonly %0, i64 noundef %1, ptr noundef nonnull writeonly align 8 captures(none) dereferenceable(8) %2, ptr noundef nonnull writeonly align 8 captures(none) dereferenceable(8) %3) local_unnamed_addr #6 {
  %.not = icmp eq ptr %0, null
  br i1 %.not, label %7, label %5

5:                                                ; preds = %4
  %6 = load i8, ptr %0, align 1, !tbaa !15
  %.not17 = icmp eq i8 %6, 0
  br i1 %.not17, label %7, label %.preheader

7:                                                ; preds = %5, %4
  store i64 0, ptr %2, align 8, !tbaa !29
  br label %_ZN19OpenColorIO_v2_5dev7IsSpaceEc.exit.thread.sink.split

.preheader:                                       ; preds = %5, %11
  %8 = phi i8 [ %.pr, %11 ], [ %6, %5 ]
  %.08.i = phi ptr [ %12, %11 ], [ %0, %5 ]
  %.0.i = phi i64 [ %13, %11 ], [ 0, %5 ]
  switch i8 %8, label %_ZN19OpenColorIO_v2_5dev22FindFirstNonWhiteSpaceEPKcm.exit [
    i8 32, label %9
    i8 13, label %9
    i8 11, label %9
    i8 10, label %9
    i8 9, label %9
    i8 12, label %9
  ]

9:                                                ; preds = %.preheader, %.preheader, %.preheader, %.preheader, %.preheader, %.preheader
  %10 = icmp eq i64 %.0.i, %1
  br i1 %10, label %_ZN19OpenColorIO_v2_5dev22FindFirstNonWhiteSpaceEPKcm.exit.thread, label %11

11:                                               ; preds = %9
  %12 = getelementptr inbounds nuw i8, ptr %.08.i, i64 1
  %13 = add i64 %.0.i, 1
  %.pr = load i8, ptr %12, align 1, !tbaa !15
  br label %.preheader, !llvm.loop !30

_ZN19OpenColorIO_v2_5dev22FindFirstNonWhiteSpaceEPKcm.exit: ; preds = %.preheader
  store i64 %.0.i, ptr %2, align 8, !tbaa !29
  %14 = icmp eq i64 %.0.i, %1
  br i1 %14, label %_ZN19OpenColorIO_v2_5dev22FindFirstNonWhiteSpaceEPKcm.exit.thread, label %15

_ZN19OpenColorIO_v2_5dev22FindFirstNonWhiteSpaceEPKcm.exit.thread: ; preds = %9, %_ZN19OpenColorIO_v2_5dev22FindFirstNonWhiteSpaceEPKcm.exit
  store i64 0, ptr %2, align 8, !tbaa !29
  br label %_ZN19OpenColorIO_v2_5dev7IsSpaceEc.exit.thread.sink.split

15:                                               ; preds = %_ZN19OpenColorIO_v2_5dev22FindFirstNonWhiteSpaceEPKcm.exit
  %16 = add i64 %1, -1
  %17 = getelementptr inbounds nuw i8, ptr %0, i64 %16
  br label %18

18:                                               ; preds = %22, %15
  %.08.i18 = phi i64 [ %16, %15 ], [ %24, %22 ]
  %.0.i19 = phi ptr [ %17, %15 ], [ %23, %22 ]
  %19 = load i8, ptr %.0.i19, align 1, !tbaa !15
  switch i8 %19, label %_ZN19OpenColorIO_v2_5dev21FindLastNonWhiteSpaceEPKcm.exit [
    i8 32, label %20
    i8 13, label %20
    i8 11, label %20
    i8 10, label %20
    i8 9, label %20
    i8 12, label %20
  ]

20:                                               ; preds = %18, %18, %18, %18, %18, %18
  %21 = icmp eq i64 %.08.i18, 0
  br i1 %21, label %_ZN19OpenColorIO_v2_5dev21FindLastNonWhiteSpaceEPKcm.exit, label %22

22:                                               ; preds = %20
  %23 = getelementptr inbounds i8, ptr %.0.i19, i64 -1
  %24 = add i64 %.08.i18, -1
  br label %18, !llvm.loop !31

_ZN19OpenColorIO_v2_5dev21FindLastNonWhiteSpaceEPKcm.exit: ; preds = %18, %20
  store i64 %.08.i18, ptr %3, align 8, !tbaa !29
  %25 = getelementptr inbounds nuw i8, ptr %0, i64 %.08.i18
  %26 = load i8, ptr %25, align 1, !tbaa !15
  switch i8 %26, label %_ZN19OpenColorIO_v2_5dev7IsSpaceEc.exit [
    i8 32, label %_ZN19OpenColorIO_v2_5dev7IsSpaceEc.exit.thread
    i8 13, label %_ZN19OpenColorIO_v2_5dev7IsSpaceEc.exit.thread
    i8 11, label %_ZN19OpenColorIO_v2_5dev7IsSpaceEc.exit.thread
    i8 10, label %_ZN19OpenColorIO_v2_5dev7IsSpaceEc.exit.thread
    i8 9, label %_ZN19OpenColorIO_v2_5dev7IsSpaceEc.exit.thread
    i8 12, label %_ZN19OpenColorIO_v2_5dev7IsSpaceEc.exit.thread
  ]

_ZN19OpenColorIO_v2_5dev7IsSpaceEc.exit:          ; preds = %_ZN19OpenColorIO_v2_5dev21FindLastNonWhiteSpaceEPKcm.exit
  %27 = add i64 %.08.i18, 1
  br label %_ZN19OpenColorIO_v2_5dev7IsSpaceEc.exit.thread.sink.split

_ZN19OpenColorIO_v2_5dev7IsSpaceEc.exit.thread.sink.split: ; preds = %7, %_ZN19OpenColorIO_v2_5dev22FindFirstNonWhiteSpaceEPKcm.exit.thread, %_ZN19OpenColorIO_v2_5dev7IsSpaceEc.exit
  %.sink = phi i64 [ %27, %_ZN19OpenColorIO_v2_5dev7IsSpaceEc.exit ], [ 0, %_ZN19OpenColorIO_v2_5dev22FindFirstNonWhiteSpaceEPKcm.exit.thread ], [ 0, %7 ]
  store i64 %.sink, ptr %3, align 8, !tbaa !29
  br label %_ZN19OpenColorIO_v2_5dev7IsSpaceEc.exit.thread

_ZN19OpenColorIO_v2_5dev7IsSpaceEc.exit.thread:   ; preds = %_ZN19OpenColorIO_v2_5dev7IsSpaceEc.exit.thread.sink.split, %_ZN19OpenColorIO_v2_5dev21FindLastNonWhiteSpaceEPKcm.exit, %_ZN19OpenColorIO_v2_5dev21FindLastNonWhiteSpaceEPKcm.exit, %_ZN19OpenColorIO_v2_5dev21FindLastNonWhiteSpaceEPKcm.exit, %_ZN19OpenColorIO_v2_5dev21FindLastNonWhiteSpaceEPKcm.exit, %_ZN19OpenColorIO_v2_5dev21FindLastNonWhiteSpaceEPKcm.exit, %_ZN19OpenColorIO_v2_5dev21FindLastNonWhiteSpaceEPKcm.exit
  ret void
}